; Function Attrs: nounwind uwtable
define i32 @ff_tadd_long_metadata(i32 noundef %0, ptr noundef %1, ptr noundef %2, ptr noundef captures(none) %3, i32 noundef %4, ptr noundef %5) local_unnamed_addr #3 {
  %7 = alloca ptr, align 8
  %8 = alloca %struct.AVBPrint, align 8
  call void @llvm.lifetime.start.p0(i64 1024, ptr nonnull %8) #8
  %9 = add i32 %0, -536870911
  %or.cond = icmp ult i32 %9, -536870910
  br i1 %or.cond, label %87, label %10

10:                                               ; preds = %6
  %11 = getelementptr inbounds nuw i8, ptr %3, i64 8
  %12 = load ptr, ptr %11, align 8, !tbaa !10
  %13 = load ptr, ptr %3, align 8, !tbaa !14
  %14 = ptrtoint ptr %12 to i64
  %15 = ptrtoint ptr %13 to i64
  %16 = sub i64 %14, %15
  %17 = trunc i64 %16 to i32
  %18 = shl nuw nsw i32 %0, 2
  %19 = icmp ugt i32 %18, %17
  br i1 %19, label %87, label %.lr.ph

.lr.ph:                                           ; preds = %10
  %20 = mul nuw nsw i32 %0, 10
  call void @av_bprint_init(ptr noundef nonnull %8, i32 noundef %20, i32 noundef -1) #8
  %.not.i = icmp eq ptr %2, null
  %21 = icmp samesign ugt i32 %0, 8
  %22 = select i1 %21, ptr @.str.9, ptr @.str.7
  %.not.i19 = icmp eq i32 %4, 0
  br i1 %.not.i19, label %.lr.ph.split.us, label %.lr.ph.split

.lr.ph.split.us:                                  ; preds = %.lr.ph
  br i1 %.not.i, label %.lr.ph.split.us.split.us, label %auto_sep.exit.us

.lr.ph.split.us.split.us:                         ; preds = %.lr.ph.split.us, %ff_tget_long.exit.us.us
  %.023.us.us = phi i32 [ %36, %ff_tget_long.exit.us.us ], [ 0, %.lr.ph.split.us ]
  %23 = and i32 %.023.us.us, 7
  %.not11.i.us.us = icmp eq i32 %23, 0
  %spec.select = select i1 %.not11.i.us.us, ptr %22, ptr @.str.8
  %24 = load ptr, ptr %11, align 8, !tbaa !10
  %25 = load ptr, ptr %3, align 8, !tbaa !14
  %26 = ptrtoint ptr %24 to i64
  %27 = ptrtoint ptr %25 to i64
  %28 = sub i64 %26, %27
  %29 = icmp slt i64 %28, 4
  br i1 %29, label %34, label %30

30:                                               ; preds = %.lr.ph.split.us.split.us
  %31 = getelementptr inbounds nuw i8, ptr %25, i64 4
  store ptr %31, ptr %3, align 8, !tbaa !15
  %32 = load i32, ptr %25, align 1, !tbaa !16
  %33 = call i32 @llvm.bswap.i32(i32 %32)
  br label %ff_tget_long.exit.us.us

34:                                               ; preds = %.lr.ph.split.us.split.us
  store ptr %24, ptr %3, align 8, !tbaa !14
  br label %ff_tget_long.exit.us.us

ff_tget_long.exit.us.us:                          ; preds = %34, %30
  %35 = phi i32 [ 0, %34 ], [ %33, %30 ]
  call void (ptr, ptr, ...) @av_bprintf(ptr noundef nonnull %8, ptr noundef nonnull @.str.1, ptr noundef nonnull %spec.select, i32 noundef %35) #8
  %36 = add nuw nsw i32 %.023.us.us, 1
  %exitcond35.not = icmp eq i32 %36, %0
  br i1 %exitcond35.not, label %._crit_edge, label %.lr.ph.split.us.split.us, !llvm.loop !22

auto_sep.exit.us:                                 ; preds = %.lr.ph.split.us, %ff_tget_long.exit.us
  %.023.us = phi i32 [ %50, %ff_tget_long.exit.us ], [ 0, %.lr.ph.split.us ]
  %.not10.i.us = icmp eq i32 %.023.us, 0
  %37 = select i1 %.not10.i.us, ptr @.str.7, ptr %2
  %38 = load ptr, ptr %11, align 8, !tbaa !10
  %39 = load ptr, ptr %3, align 8, !tbaa !14
  %40 = ptrtoint ptr %38 to i64
  %41 = ptrtoint ptr %39 to i64
  %42 = sub i64 %40, %41
  %43 = icmp slt i64 %42, 4
  br i1 %43, label %48, label %44

44:                                               ; preds = %auto_sep.exit.us
  %45 = getelementptr inbounds nuw i8, ptr %39, i64 4
  store ptr %45, ptr %3, align 8, !tbaa !15
  %46 = load i32, ptr %39, align 1, !tbaa !16
  %47 = call i32 @llvm.bswap.i32(i32 %46)
  br label %ff_tget_long.exit.us

48:                                               ; preds = %auto_sep.exit.us
  store ptr %38, ptr %3, align 8, !tbaa !14
  br label %ff_tget_long.exit.us

ff_tget_long.exit.us:                             ; preds = %48, %44
  %49 = phi i32 [ 0, %48 ], [ %47, %44 ]
  call void (ptr, ptr, ...) @av_bprintf(ptr noundef nonnull %8, ptr noundef nonnull @.str.1, ptr noundef nonnull %37, i32 noundef %49) #8
  %50 = add nuw nsw i32 %.023.us, 1
  %exitcond34.not = icmp eq i32 %50, %0
  br i1 %exitcond34.not, label %._crit_edge, label %auto_sep.exit.us, !llvm.loop !22

.lr.ph.split:                                     ; preds = %.lr.ph
  br i1 %.not.i, label %.lr.ph.split.split.us, label %auto_sep.exit

.lr.ph.split.split.us:                            ; preds = %.lr.ph.split, %ff_tget_long.exit.us28
  %.023.us24 = phi i32 [ %63, %ff_tget_long.exit.us28 ], [ 0, %.lr.ph.split ]
  %51 = and i32 %.023.us24, 7
  %.not11.i.us25 = icmp eq i32 %51, 0
  %spec.select29 = select i1 %.not11.i.us25, ptr %22, ptr @.str.8
  %52 = load ptr, ptr %11, align 8, !tbaa !10
  %53 = load ptr, ptr %3, align 8, !tbaa !14
  %54 = ptrtoint ptr %52 to i64
  %55 = ptrtoint ptr %53 to i64
  %56 = sub i64 %54, %55
  %57 = icmp slt i64 %56, 4
  br i1 %57, label %61, label %58

58:                                               ; preds = %.lr.ph.split.split.us
  %59 = getelementptr inbounds nuw i8, ptr %53, i64 4
  store ptr %59, ptr %3, align 8, !tbaa !15
  %60 = load i32, ptr %53, align 1, !tbaa !16
  br label %ff_tget_long.exit.us28

61:                                               ; preds = %.lr.ph.split.split.us
  store ptr %52, ptr %3, align 8, !tbaa !14
  br label %ff_tget_long.exit.us28

ff_tget_long.exit.us28:                           ; preds = %61, %58
  %62 = phi i32 [ 0, %61 ], [ %60, %58 ]
  call void (ptr, ptr, ...) @av_bprintf(ptr noundef nonnull %8, ptr noundef nonnull @.str.1, ptr noundef nonnull %spec.select29, i32 noundef %62) #8
  %63 = add nuw nsw i32 %.023.us24, 1
  %exitcond33.not = icmp eq i32 %63, %0
  br i1 %exitcond33.not, label %._crit_edge, label %.lr.ph.split.split.us, !llvm.loop !22

auto_sep.exit:                                    ; preds = %.lr.ph.split, %ff_tget_long.exit
  %.023 = phi i32 [ %76, %ff_tget_long.exit ], [ 0, %.lr.ph.split ]
  %.not10.i = icmp eq i32 %.023, 0
  %64 = select i1 %.not10.i, ptr @.str.7, ptr %2
  %65 = load ptr, ptr %11, align 8, !tbaa !10
  %66 = load ptr, ptr %3, align 8, !tbaa !14
  %67 = ptrtoint ptr %65 to i64
  %68 = ptrtoint ptr %66 to i64
  %69 = sub i64 %67, %68
  %70 = icmp slt i64 %69, 4
  br i1 %70, label %71, label %72

71:                                               ; preds = %auto_sep.exit
  store ptr %65, ptr %3, align 8, !tbaa !14
  br label %ff_tget_long.exit

72:                                               ; preds = %auto_sep.exit
  %73 = getelementptr inbounds nuw i8, ptr %66, i64 4
  store ptr %73, ptr %3, align 8, !tbaa !15
  %74 = load i32, ptr %66, align 1, !tbaa !16
  br label %ff_tget_long.exit

ff_tget_long.exit:                                ; preds = %71, %72
  %75 = phi i32 [ 0, %71 ], [ %74, %72 ]
  call void (ptr, ptr, ...) @av_bprintf(ptr noundef nonnull %8, ptr noundef nonnull @.str.1, ptr noundef nonnull %64, i32 noundef %75) #8
  %76 = add nuw nsw i32 %.023, 1
  %exitcond.not = icmp eq i32 %76, %0
  br i1 %exitcond.not, label %._crit_edge, label %auto_sep.exit, !llvm.loop !22

._crit_edge:                                      ; preds = %ff_tget_long.exit, %ff_tget_long.exit.us28, %ff_tget_long.exit.us, %ff_tget_long.exit.us.us
  call void @llvm.lifetime.start.p0(i64 8, ptr nonnull %7) #8
  %77 = getelementptr inbounds nuw i8, ptr %8, i64 8
  %.val.i = load i32, ptr %77, align 8, !tbaa !18
  %78 = getelementptr inbounds nuw i8, ptr %8, i64 12
  %.val7.i = load i32, ptr %78, align 4, !tbaa !21
  %.not.i20 = icmp ult i32 %.val.i, %.val7.i
  br i1 %.not.i20, label %81, label %79

79:                                               ; preds = %._crit_edge
  %80 = call i32 @av_bprint_finalize(ptr noundef nonnull %8, ptr noundef null) #8
  br label %bprint_to_avdict.exit

81:                                               ; preds = %._crit_edge
  %82 = call i32 @av_bprint_finalize(ptr noundef nonnull %8, ptr noundef nonnull %7) #8
  %83 = icmp slt i32 %82, 0
  br i1 %83, label %bprint_to_avdict.exit, label %84

84:                                               ; preds = %81
  %85 = load ptr, ptr %7, align 8, !tbaa !15
  %86 = call i32 @av_dict_set(ptr noundef %5, ptr noundef %1, ptr noundef %85, i32 noundef 8) #8
  br label %bprint_to_avdict.exit

bprint_to_avdict.exit:                            ; preds = %79, %81, %84
  %.0.i21 = phi i32 [ %86, %84 ], [ -12, %79 ], [ %82, %81 ]
  call void @llvm.lifetime.end.p0(i64 8, ptr nonnull %7) #8
  br label %87

87:                                               ; preds = %10, %6, %bprint_to_avdict.exit
  %.016 = phi i32 [ %.0.i21, %bprint_to_avdict.exit ], [ -1094995529, %6 ], [ -1094995529, %10 ]
  call void @llvm.lifetime.end.p0(i64 1024, ptr nonnull %8) #8
  ret i32 %.016
}